; Function Attrs: mustprogress nounwind uwtable
define noundef zeroext i1 @_ZN5boost11this_thread20interruption_enabledEv() local_unnamed_addr #5 personality ptr @__gxx_personality_v0 {
  %1 = tail call noundef zeroext i1 @_ZN5boost13thread_detail17enter_once_regionERNS_9once_flagE(ptr noundef nonnull align 4 dereferenceable(4) @_ZN5boost6detail12_GLOBAL__N_128current_thread_tls_init_flagE) #32
  br i1 %1, label %_ZN5boost6detail6invokeIPFvvEJEEEDTclclsr5boostE7forwardIT_Efp_Espclsr5boostE7forwardIT0_Efp0_EEEOS4_DpOS5_.exit.i.i, label %3

_ZN5boost6detail6invokeIPFvvEJEEEDTclclsr5boostE7forwardIT_Efp_Espclsr5boostE7forwardIT0_Efp0_EEEOS4_DpOS5_.exit.i.i: ; preds = %0
  %2 = tail call i32 @pthread_key_create(ptr noundef nonnull @_ZN5boost6detail12_GLOBAL__N_122current_thread_tls_keyE, ptr noundef nonnull @_ZN5boost6detail12_GLOBAL__N_114tls_destructorEPv) #32
  tail call void @_ZN5boost13thread_detail18commit_once_regionERNS_9once_flagE(ptr noundef nonnull align 4 dereferenceable(4) @_ZN5boost6detail12_GLOBAL__N_128current_thread_tls_init_flagE) #32
  br label %3

3:                                                ; preds = %_ZN5boost6detail6invokeIPFvvEJEEEDTclclsr5boostE7forwardIT_Efp_Espclsr5boostE7forwardIT0_Efp0_EEEOS4_DpOS5_.exit.i.i, %0
  %4 = load i32, ptr @_ZN5boost6detail12_GLOBAL__N_122current_thread_tls_keyE, align 4, !tbaa !54
  %5 = tail call noundef ptr @pthread_getspecific(i32 noundef %4) #32
  %.not = icmp eq ptr %5, null
  br i1 %.not, label %10, label %6

6:                                                ; preds = %3
  %7 = getelementptr inbounds nuw i8, ptr %5, i64 304
  %8 = load i8, ptr %7, align 8, !tbaa !56, !range !51, !noundef !52
  %9 = trunc nuw i8 %8 to i1
  br label %10

10:                                               ; preds = %6, %3
  %11 = phi i1 [ false, %3 ], [ %9, %6 ]
  ret i1 %11
}